target datalayout = "e-m:e-p270:32:32-p271:32:32-p272:64:64-i64:64-i128:128-f80:128-n8:16:32:64-S128"
target triple = "x86_64-pc-linux-gnu"

%struct.test_fixture = type { ptr, i32, ptr, ptr, ptr, ptr, i32 }
%struct.ossl_cmp_ctx_st = type { ptr, ptr, ptr, i32, ptr, ptr, ptr, ptr, ptr, i32, ptr, ptr, i32, i32, i32, i32, i64, ptr, ptr, i32, i32, ptr, ptr, ptr, ptr, ptr, i32, i32, i32, ptr, ptr, ptr, ptr, ptr, i64, ptr, i32, i32, ptr, ptr, ptr, ptr, ptr, ptr, ptr, ptr, i32, i32, ptr, ptr, i32, ptr, ptr, i32, ptr, ptr, i32, i32, ptr, ptr, i32, i32, ptr, ptr, i32, ptr, i32, ptr, i32, ptr, ptr, ptr, ptr, ptr, ptr }

@.str.14 = private unnamed_addr constant [31 x i8] c"../openssl/test/cmp_vfy_test.c\00", align 1
@.str.75 = private unnamed_addr constant [18 x i8] c"fixture->expected\00", align 1
@.str.91 = private unnamed_addr constant [114 x i8] c"ossl_cmp_msg_check_update(fixture->cmp_ctx, fixture->msg, fixture->allow_unprotected_cb, fixture->additional_arg)\00", align 1
@.str.92 = private unnamed_addr constant [2 x i8] c"0\00", align 1
@.str.93 = private unnamed_addr constant [88 x i8] c"ASN1_OCTET_STRING_cmp(ossl_cmp_hdr_get0_senderNonce(hdr), fixture->cmp_ctx->recipNonce)\00", align 1
@.str.94 = private unnamed_addr constant [60 x i8] c"ASN1_OCTET_STRING_cmp(tid, fixture->cmp_ctx->transactionID)\00", align 1

; Function Attrs: nounwind uwtable
define internal i32 @execute_msg_check_test(ptr noundef %0) #0 {
  %2 = alloca i32, align 4
  %3 = alloca ptr, align 8
  %4 = alloca ptr, align 8
  %5 = alloca ptr, align 8
  %6 = alloca i32, align 4
  store ptr %0, ptr %3, align 8, !tbaa !24
  call void @llvm.lifetime.start.p0(i64 8, ptr %4) #7
  %7 = load ptr, ptr %3, align 8, !tbaa !24
  %8 = getelementptr inbounds nuw %struct.test_fixture, ptr %7, i32 0, i32 3
  %9 = load ptr, ptr %8, align 8, !tbaa !31
  %10 = call ptr @OSSL_CMP_MSG_get0_header(ptr noundef %9)
  store ptr %10, ptr %4, align 8, !tbaa !70
  call void @llvm.lifetime.start.p0(i64 8, ptr %5) #7
  %11 = load ptr, ptr %4, align 8, !tbaa !70
  %12 = call ptr @OSSL_CMP_HDR_get0_transactionID(ptr noundef %11)
  store ptr %12, ptr %5, align 8, !tbaa !58
  %13 = load ptr, ptr %3, align 8, !tbaa !24
  %14 = getelementptr inbounds nuw %struct.test_fixture, ptr %13, i32 0, i32 1
  %15 = load i32, ptr %14, align 8, !tbaa !27
  %16 = load ptr, ptr %3, align 8, !tbaa !24
  %17 = getelementptr inbounds nuw %struct.test_fixture, ptr %16, i32 0, i32 2
  %18 = load ptr, ptr %17, align 8, !tbaa !32
  %19 = load ptr, ptr %3, align 8, !tbaa !24
  %20 = getelementptr inbounds nuw %struct.test_fixture, ptr %19, i32 0, i32 3
  %21 = load ptr, ptr %20, align 8, !tbaa !31
  %22 = load ptr, ptr %3, align 8, !tbaa !24
  %23 = getelementptr inbounds nuw %struct.test_fixture, ptr %22, i32 0, i32 5
  %24 = load ptr, ptr %23, align 8, !tbaa !69
  %25 = load ptr, ptr %3, align 8, !tbaa !24
  %26 = getelementptr inbounds nuw %struct.test_fixture, ptr %25, i32 0, i32 6
  %27 = load i32, ptr %26, align 8, !tbaa !57
  %28 = call i32 @ossl_cmp_msg_check_update(ptr noundef %18, ptr noundef %21, ptr noundef %24, i32 noundef %27)
  %29 = call i32 @test_int_eq(ptr noundef @.str.14, i32 noundef 451, ptr noundef @.str.75, ptr noundef @.str.91, i32 noundef %15, i32 noundef %28)
  %30 = icmp ne i32 %29, 0
  br i1 %30, label %32, label %31

31:                                               ; preds = %1
  store i32 0, ptr %2, align 4
  store i32 1, ptr %6, align 4
  br label %62

32:                                               ; preds = %1
  %33 = load ptr, ptr %3, align 8, !tbaa !24
  %34 = getelementptr inbounds nuw %struct.test_fixture, ptr %33, i32 0, i32 1
  %35 = load i32, ptr %34, align 8, !tbaa !27
  %36 = icmp eq i32 %35, 0
  br i1 %36, label %37, label %38

37:                                               ; preds = %32
  store i32 1, ptr %2, align 4
  store i32 1, ptr %6, align 4
  br label %62

38:                                               ; preds = %32
  %39 = load ptr, ptr %4, align 8, !tbaa !70
  %40 = call ptr @ossl_cmp_hdr_get0_senderNonce(ptr noundef %39)
  %41 = load ptr, ptr %3, align 8, !tbaa !24
  %42 = getelementptr inbounds nuw %struct.test_fixture, ptr %41, i32 0, i32 2
  %43 = load ptr, ptr %42, align 8, !tbaa !32
  %44 = getelementptr inbounds nuw %struct.ossl_cmp_ctx_st, ptr %43, i32 0, i32 42
  %45 = load ptr, ptr %44, align 8, !tbaa !71
  %46 = call i32 @ASN1_OCTET_STRING_cmp(ptr noundef %40, ptr noundef %45)
  %47 = call i32 @test_int_eq(ptr noundef @.str.14, i32 noundef 459, ptr noundef @.str.92, ptr noundef @.str.93, i32 noundef 0, i32 noundef %46)
  %48 = icmp ne i32 %47, 0
  br i1 %48, label %49, label %59

49:                                               ; preds = %38
  %50 = load ptr, ptr %5, align 8, !tbaa !58
  %51 = load ptr, ptr %3, align 8, !tbaa !24
  %52 = getelementptr inbounds nuw %struct.test_fixture, ptr %51, i32 0, i32 2
  %53 = load ptr, ptr %52, align 8, !tbaa !32
  %54 = getelementptr inbounds nuw %struct.ossl_cmp_ctx_st, ptr %53, i32 0, i32 40
  %55 = load ptr, ptr %54, align 8, !tbaa !82
  %56 = call i32 @ASN1_OCTET_STRING_cmp(ptr noundef %50, ptr noundef %55)
  %57 = call i32 @test_int_eq(ptr noundef @.str.14, i32 noundef 462, ptr noundef @.str.92, ptr noundef @.str.94, i32 noundef 0, i32 noundef %56)
  %58 = icmp ne i32 %57, 0
  br label %59

59:                                               ; preds = %49, %38
  %60 = phi i1 [ false, %38 ], [ %58, %49 ]
  %61 = zext i1 %60 to i32
  store i32 %61, ptr %2, align 4
  store i32 1, ptr %6, align 4
  br label %62

62:                                               ; preds = %59, %37, %31
  call void @llvm.lifetime.end.p0(i64 8, ptr %5) #7
  call void @llvm.lifetime.end.p0(i64 8, ptr %4) #7
  %63 = load i32, ptr %2, align 4
  ret i32 %63
}