; Function Attrs: nounwind uwtable
define internal fastcc range(i32 0, 2) i32 @execute_msg_check_test(ptr noundef nonnull readonly captures(none) %0) unnamed_addr #0 {
  %2 = getelementptr inbounds nuw i8, ptr %0, i64 24
  %3 = load ptr, ptr %2, align 8, !tbaa !27
  %4 = tail call ptr @OSSL_CMP_MSG_get0_header(ptr noundef %3) #7
  %5 = tail call ptr @OSSL_CMP_HDR_get0_transactionID(ptr noundef %4) #7
  %6 = getelementptr inbounds nuw i8, ptr %0, i64 8
  %7 = load i32, ptr %6, align 8, !tbaa !24
  %8 = getelementptr inbounds nuw i8, ptr %0, i64 16
  %9 = load ptr, ptr %8, align 8, !tbaa !28
  %10 = load ptr, ptr %2, align 8, !tbaa !27
  %11 = getelementptr inbounds nuw i8, ptr %0, i64 40
  %12 = load ptr, ptr %11, align 8, !tbaa !38
  %13 = getelementptr inbounds nuw i8, ptr %0, i64 48
  %14 = load i32, ptr %13, align 8, !tbaa !39
  %15 = tail call i32 @ossl_cmp_msg_check_update(ptr noundef %9, ptr noundef %10, ptr noundef %12, i32 noundef %14) #7
  %16 = tail call i32 @test_int_eq(ptr noundef nonnull @.str.14, i32 noundef 451, ptr noundef nonnull @.str.75, ptr noundef nonnull @.str.91, i32 noundef %7, i32 noundef %15) #7
  %.not = icmp eq i32 %16, 0
  br i1 %.not, label %35, label %17

17:                                               ; preds = %1
  %18 = load i32, ptr %6, align 8, !tbaa !24
  %19 = icmp eq i32 %18, 0
  br i1 %19, label %35, label %20

20:                                               ; preds = %17
  %21 = tail call ptr @ossl_cmp_hdr_get0_senderNonce(ptr noundef %4) #7
  %22 = load ptr, ptr %8, align 8, !tbaa !28
  %23 = getelementptr inbounds nuw i8, ptr %22, i64 296
  %24 = load ptr, ptr %23, align 8, !tbaa !53
  %25 = tail call i32 @ASN1_OCTET_STRING_cmp(ptr noundef %21, ptr noundef %24) #7
  %26 = tail call i32 @test_int_eq(ptr noundef nonnull @.str.14, i32 noundef 459, ptr noundef nonnull @.str.92, ptr noundef nonnull @.str.93, i32 noundef 0, i32 noundef %25) #7
  %.not12 = icmp eq i32 %26, 0
  br i1 %.not12, label %35, label %27

27:                                               ; preds = %20
  %28 = load ptr, ptr %8, align 8, !tbaa !28
  %29 = getelementptr inbounds nuw i8, ptr %28, i64 280
  %30 = load ptr, ptr %29, align 8, !tbaa !66
  %31 = tail call i32 @ASN1_OCTET_STRING_cmp(ptr noundef %5, ptr noundef %30) #7
  %32 = tail call i32 @test_int_eq(ptr noundef nonnull @.str.14, i32 noundef 462, ptr noundef nonnull @.str.92, ptr noundef nonnull @.str.94, i32 noundef 0, i32 noundef %31) #7
  %33 = icmp ne i32 %32, 0
  %34 = zext i1 %33 to i32
  br label %35

35:                                               ; preds = %20, %27, %17, %1
  %.0 = phi i32 [ 0, %1 ], [ 1, %17 ], [ 0, %20 ], [ %34, %27 ]
  ret i32 %.0
}